; Function Attrs: mustprogress uwtable
define dso_local void @_ZN4absl9StrAppendEPNSt7__cxx1112basic_stringIcSt11char_traitsIcESaIcEEERKNS_8AlphaNumES9_(ptr noundef nonnull %0, ptr noundef nonnull readonly align 8 captures(none) dereferenceable(48) %1, ptr noundef nonnull readonly align 8 captures(none) dereferenceable(48) %2) local_unnamed_addr #0 {
  %4 = getelementptr inbounds nuw i8, ptr %0, i64 8
  %5 = load i64, ptr %4, align 8, !tbaa !10
  %6 = load i64, ptr %1, align 8, !tbaa !14
  %7 = load i64, ptr %2, align 8, !tbaa !14
  %8 = add i64 %7, %6
  %9 = tail call noundef nonnull align 8 dereferenceable(32) ptr @_ZNSt7__cxx1112basic_stringIcSt11char_traitsIcESaIcEE14_M_replace_auxEmmmc(ptr noundef nonnull align 8 dereferenceable(32) %0, i64 noundef %5, i64 noundef 0, i64 noundef %8, i8 noundef signext 0)
  %10 = load ptr, ptr %0, align 8, !tbaa !16
  %11 = getelementptr inbounds nuw i8, ptr %10, i64 %5
  %.val11 = load i64, ptr %1, align 8, !tbaa !14
  %.not.i = icmp eq i64 %.val11, 0
  br i1 %.not.i, label %_ZN4absl12_GLOBAL__N_16AppendEPcRKNS_8AlphaNumE.exit, label %12

12:                                               ; preds = %3
  %13 = getelementptr inbounds nuw i8, ptr %1, i64 8
  %.val12 = load ptr, ptr %13, align 8
  tail call void @llvm.memcpy.p0.p0.i64(ptr nonnull align 1 %11, ptr readonly align 1 %.val12, i64 %.val11, i1 false)
  br label %_ZN4absl12_GLOBAL__N_16AppendEPcRKNS_8AlphaNumE.exit

_ZN4absl12_GLOBAL__N_16AppendEPcRKNS_8AlphaNumE.exit: ; preds = %3, %12
  %.val = load i64, ptr %2, align 8, !tbaa !14
  %.not.i13 = icmp eq i64 %.val, 0
  br i1 %.not.i13, label %_ZN4absl12_GLOBAL__N_16AppendEPcRKNS_8AlphaNumE.exit14, label %14

14:                                               ; preds = %_ZN4absl12_GLOBAL__N_16AppendEPcRKNS_8AlphaNumE.exit
  %15 = getelementptr inbounds nuw i8, ptr %2, i64 8
  %.val10 = load ptr, ptr %15, align 8
  %16 = getelementptr inbounds nuw i8, ptr %11, i64 %.val11
  tail call void @llvm.memcpy.p0.p0.i64(ptr nonnull align 1 %16, ptr readonly align 1 %.val10, i64 %.val, i1 false)
  br label %_ZN4absl12_GLOBAL__N_16AppendEPcRKNS_8AlphaNumE.exit14

_ZN4absl12_GLOBAL__N_16AppendEPcRKNS_8AlphaNumE.exit14: ; preds = %_ZN4absl12_GLOBAL__N_16AppendEPcRKNS_8AlphaNumE.exit, %14
  ret void
}